; Function Attrs: nounwind uwtable
define internal void @file_context_dtor(ptr noundef readonly captures(none) %0) #1 {
  %2 = getelementptr inbounds nuw i8, ptr %0, i64 24
  %3 = load ptr, ptr %2, align 8, !tbaa !18
  %4 = getelementptr inbounds nuw i8, ptr %3, i64 16
  %5 = load i8, ptr %4, align 8, !tbaa !21
  %.not = icmp eq i8 %5, 0
  br i1 %.not, label %8, label %6

6:                                                ; preds = %1
  %7 = getelementptr inbounds nuw i8, ptr %3, i64 8
  tail call void @zval_ptr_dtor(ptr noundef nonnull %7) #18
  store i32 0, ptr %4, align 8, !tbaa !21
  br label %8

8:                                                ; preds = %6, %1
  tail call void @php_stream_context_free(ptr noundef nonnull %3) #18
  ret void
}